target datalayout = "e-m:e-p270:32:32-p271:32:32-p272:64:64-i64:64-i128:128-f80:128-n8:16:32:64-S128"
target triple = "x86_64-pc-linux-gnu"

; Function Attrs: nounwind sspstrong uwtable
define internal void @gen_addv_mask(ptr noundef %0, ptr noundef %1, ptr noundef %2, ptr noundef %3) #0 {
  %5 = alloca ptr, align 8
  %6 = alloca ptr, align 8
  %7 = alloca ptr, align 8
  %8 = alloca ptr, align 8
  %9 = alloca ptr, align 8
  %10 = alloca ptr, align 8
  %11 = alloca ptr, align 8
  store ptr %0, ptr %5, align 8
  store ptr %1, ptr %6, align 8
  store ptr %2, ptr %7, align 8
  store ptr %3, ptr %8, align 8
  call void @llvm.lifetime.start.p0(i64 8, ptr %9) #10
  %12 = call ptr @tcg_temp_ebb_new_i64()
  store ptr %12, ptr %9, align 8
  call void @llvm.lifetime.start.p0(i64 8, ptr %10) #10
  %13 = call ptr @tcg_temp_ebb_new_i64()
  store ptr %13, ptr %10, align 8
  call void @llvm.lifetime.start.p0(i64 8, ptr %11) #10
  %14 = call ptr @tcg_temp_ebb_new_i64()
  store ptr %14, ptr %11, align 8
  %15 = load ptr, ptr %9, align 8
  %16 = load ptr, ptr %6, align 8
  %17 = load ptr, ptr %8, align 8
  call void @tcg_gen_andc_i64(ptr noundef %15, ptr noundef %16, ptr noundef %17)
  %18 = load ptr, ptr %10, align 8
  %19 = load ptr, ptr %7, align 8
  %20 = load ptr, ptr %8, align 8
  call void @tcg_gen_andc_i64(ptr noundef %18, ptr noundef %19, ptr noundef %20)
  %21 = load ptr, ptr %11, align 8
  %22 = load ptr, ptr %6, align 8
  %23 = load ptr, ptr %7, align 8
  call void @tcg_gen_xor_i64(ptr noundef %21, ptr noundef %22, ptr noundef %23)
  %24 = load ptr, ptr %5, align 8
  %25 = load ptr, ptr %9, align 8
  %26 = load ptr, ptr %10, align 8
  call void @tcg_gen_add_i64(ptr noundef %24, ptr noundef %25, ptr noundef %26)
  %27 = load ptr, ptr %11, align 8
  %28 = load ptr, ptr %11, align 8
  %29 = load ptr, ptr %8, align 8
  call void @tcg_gen_and_i64(ptr noundef %27, ptr noundef %28, ptr noundef %29)
  %30 = load ptr, ptr %5, align 8
  %31 = load ptr, ptr %5, align 8
  %32 = load ptr, ptr %11, align 8
  call void @tcg_gen_xor_i64(ptr noundef %30, ptr noundef %31, ptr noundef %32)
  %33 = load ptr, ptr %9, align 8
  call void @tcg_temp_free_i64(ptr noundef %33)
  %34 = load ptr, ptr %10, align 8
  call void @tcg_temp_free_i64(ptr noundef %34)
  %35 = load ptr, ptr %11, align 8
  call void @tcg_temp_free_i64(ptr noundef %35)
  call void @llvm.lifetime.end.p0(i64 8, ptr %11) #10
  call void @llvm.lifetime.end.p0(i64 8, ptr %10) #10
  call void @llvm.lifetime.end.p0(i64 8, ptr %9) #10
  ret void
}