; Function Attrs: nounwind sspstrong uwtable
define internal fastcc void @gen_addv_mask(ptr noundef %0, ptr noundef %1, ptr noundef %2, ptr noundef %3) unnamed_addr #2 {
  %5 = tail call ptr @tcg_temp_ebb_new_i64() #10
  %6 = tail call ptr @tcg_temp_ebb_new_i64() #10
  %7 = tail call ptr @tcg_temp_ebb_new_i64() #10
  tail call void @tcg_gen_andc_i64(ptr noundef %5, ptr noundef %1, ptr noundef %3) #10
  tail call void @tcg_gen_andc_i64(ptr noundef %6, ptr noundef %2, ptr noundef %3) #10
  tail call void @tcg_gen_xor_i64(ptr noundef %7, ptr noundef %1, ptr noundef %2) #10
  tail call void @tcg_gen_add_i64(ptr noundef %0, ptr noundef %5, ptr noundef %6) #10
  tail call void @tcg_gen_and_i64(ptr noundef %7, ptr noundef %7, ptr noundef %3) #10
  tail call void @tcg_gen_xor_i64(ptr noundef %0, ptr noundef %0, ptr noundef %7) #10
  tail call void @tcg_temp_free_i64(ptr noundef %5) #10
  tail call void @tcg_temp_free_i64(ptr noundef %6) #10
  tail call void @tcg_temp_free_i64(ptr noundef %7) #10
  ret void
}